target datalayout = "e-m:e-p270:32:32-p271:32:32-p272:64:64-i64:64-i128:128-f80:128-n8:16:32:64-S128"
target triple = "x86_64-pc-linux-gnu"

%"class.facebook::yoga::Node" = type { i8, ptr, ptr, ptr, ptr, %"class.facebook::yoga::Style", %"struct.facebook::yoga::LayoutResults", i64, i64, ptr, %"class.std::vector", ptr, %"struct.std::array.8" }
%"class.facebook::yoga::Style" = type { i32, %"class.facebook::yoga::StyleValueHandle", %"class.facebook::yoga::StyleValueHandle", %"class.facebook::yoga::StyleValueHandle", %"class.facebook::yoga::StyleValueHandle", %"struct.std::array", %"struct.std::array", %"struct.std::array", %"struct.std::array", %"struct.std::array.0", %"struct.std::array.1", %"struct.std::array.1", %"struct.std::array.1", %"class.facebook::yoga::StyleValueHandle", %"class.facebook::yoga::StyleValuePool" }
%"struct.std::array" = type { [9 x %"class.facebook::yoga::StyleValueHandle"] }
%"struct.std::array.0" = type { [3 x %"class.facebook::yoga::StyleValueHandle"] }
%"struct.std::array.1" = type { [2 x %"class.facebook::yoga::StyleValueHandle"] }
%"class.facebook::yoga::StyleValueHandle" = type { i16 }
%"class.facebook::yoga::StyleValuePool" = type { %"class.facebook::yoga::SmallValueBuffer" }
%"class.facebook::yoga::SmallValueBuffer" = type { i16, %"struct.std::array.2", %"class.std::bitset", %"class.std::unique_ptr" }
%"struct.std::array.2" = type { [4 x i32] }
%"class.std::bitset" = type { %"struct.std::_Base_bitset" }
%"struct.std::_Base_bitset" = type { i64 }
%"class.std::unique_ptr" = type { %"struct.std::__uniq_ptr_data" }
%"struct.std::__uniq_ptr_data" = type { %"class.std::__uniq_ptr_impl" }
%"class.std::__uniq_ptr_impl" = type { %"class.std::tuple" }
%"class.std::tuple" = type { %"struct.std::_Tuple_impl" }
%"struct.std::_Tuple_impl" = type { %"struct.std::_Head_base.4" }
%"struct.std::_Head_base.4" = type { ptr }
%"struct.facebook::yoga::LayoutResults" = type { i32, %"struct.facebook::yoga::FloatOptional", i32, i32, i8, i32, %"struct.std::array.5", %"struct.facebook::yoga::CachedMeasurement", i8, %"struct.std::array.6", %"struct.std::array.6", %"struct.std::array.7", %"struct.std::array.7", %"struct.std::array.7", %"struct.std::array.7" }
%"struct.facebook::yoga::FloatOptional" = type { float }
%"struct.std::array.5" = type { [8 x %"struct.facebook::yoga::CachedMeasurement"] }
%"struct.facebook::yoga::CachedMeasurement" = type { float, float, i32, i32, float, float }
%"struct.std::array.6" = type { [2 x float] }
%"struct.std::array.7" = type { [4 x float] }
%"class.std::vector" = type { %"struct.std::_Vector_base" }
%"struct.std::_Vector_base" = type { %"struct.std::_Vector_base<facebook::yoga::Node *, std::allocator<facebook::yoga::Node *>>::_Vector_impl" }
%"struct.std::_Vector_base<facebook::yoga::Node *, std::allocator<facebook::yoga::Node *>>::_Vector_impl" = type { %"struct.std::_Vector_base<facebook::yoga::Node *, std::allocator<facebook::yoga::Node *>>::_Vector_impl_data" }
%"struct.std::_Vector_base<facebook::yoga::Node *, std::allocator<facebook::yoga::Node *>>::_Vector_impl_data" = type { ptr, ptr, ptr }
%"struct.std::array.8" = type { [2 x %"class.facebook::yoga::StyleSizeLength"] }
%"class.facebook::yoga::StyleSizeLength" = type <{ %"struct.facebook::yoga::FloatOptional", i8, [3 x i8] }>

; Function Attrs: mustprogress nounwind uwtable
define linkonce_odr noundef float @_ZNSt14numeric_limitsIfE9quiet_NaNEv() #7 comdat align 2 {
  ret float 0x7FF8000000000000
}

; Function Attrs: mustprogress nounwind uwtable
define void @_ZN8facebook4yoga4Node26setLayoutComputedFlexBasisENS0_13FloatOptionalE(ptr noundef nonnull align 8 dereferenceable(584) %0, float %1) #7 align 2 {
  %3 = alloca %"struct.facebook::yoga::FloatOptional", align 4
  %4 = alloca ptr, align 8
  %5 = getelementptr inbounds nuw %"struct.facebook::yoga::FloatOptional", ptr %3, i32 0, i32 0
  store float %1, ptr %5, align 4
  store ptr %0, ptr %4, align 8, !tbaa !4
  %6 = load ptr, ptr %4, align 8
  %7 = getelementptr inbounds nuw %"class.facebook::yoga::Node", ptr %6, i32 0, i32 6
  %8 = getelementptr inbounds nuw %"struct.facebook::yoga::LayoutResults", ptr %7, i32 0, i32 1
  call void @llvm.memcpy.p0.p0.i64(ptr align 4 %8, ptr align 4 %3, i64 4, i1 false), !tbaa.struct !124
  ret void
}

; Function Attrs: mustprogress nounwind uwtable
define linkonce_odr hidden void @_ZN8facebook4yoga13FloatOptionalC2Ev(ptr noundef nonnull align 4 dereferenceable(4) %0) unnamed_addr #7 comdat align 2 {
  %2 = alloca ptr, align 8
  store ptr %0, ptr %2, align 8, !tbaa !135
  %3 = load ptr, ptr %2, align 8
  %4 = getelementptr inbounds nuw %"struct.facebook::yoga::FloatOptional", ptr %3, i32 0, i32 0
  %5 = call noundef float @_ZNSt14numeric_limitsIfE9quiet_NaNEv() #3
  store float %5, ptr %4, align 4, !tbaa !137
  ret void
}

; Function Attrs: mustprogress uwtable
define void @_ZN8facebook4yoga4Node8setDirtyEb(ptr noundef nonnull align 8 dereferenceable(584) %0, i1 noundef zeroext %1) #4 align 2 {
  %3 = alloca ptr, align 8
  %4 = alloca i8, align 1
  store ptr %0, ptr %3, align 8, !tbaa !4
  %5 = zext i1 %1 to i8
  store i8 %5, ptr %4, align 1, !tbaa !118
  %6 = load ptr, ptr %3, align 8
  %7 = load i8, ptr %4, align 1, !tbaa !118, !range !119, !noundef !120
  %8 = trunc i8 %7 to i1
  %9 = zext i1 %8 to i32
  %10 = load i8, ptr %6, align 8
  %11 = lshr i8 %10, 2
  %12 = and i8 %11, 1
  %13 = trunc i8 %12 to i1
  %14 = zext i1 %13 to i32
  %15 = icmp eq i32 %9, %14
  br i1 %15, label %16, label %17

16:                                               ; preds = %2
  br label %34

17:                                               ; preds = %2
  %18 = load i8, ptr %4, align 1, !tbaa !118, !range !119, !noundef !120
  %19 = trunc i8 %18 to i1
  %20 = zext i1 %19 to i8
  %21 = load i8, ptr %6, align 8
  %22 = shl i8 %20, 2
  %23 = and i8 %21, -5
  %24 = or i8 %23, %22
  store i8 %24, ptr %6, align 8
  %25 = load i8, ptr %4, align 1, !tbaa !118, !range !119, !noundef !120
  %26 = trunc i8 %25 to i1
  br i1 %26, label %27, label %34

27:                                               ; preds = %17
  %28 = getelementptr inbounds nuw %"class.facebook::yoga::Node", ptr %6, i32 0, i32 4
  %29 = load ptr, ptr %28, align 8, !tbaa !61
  %30 = icmp ne ptr %29, null
  br i1 %30, label %31, label %34

31:                                               ; preds = %27
  %32 = getelementptr inbounds nuw %"class.facebook::yoga::Node", ptr %6, i32 0, i32 4
  %33 = load ptr, ptr %32, align 8, !tbaa !61
  call void %33(ptr noundef %6)
  br label %34

34:                                               ; preds = %16, %31, %27, %17
  ret void
}

; Function Attrs: mustprogress uwtable
define void @_ZN8facebook4yoga4Node21markDirtyAndPropagateEv(ptr noundef nonnull align 8 dereferenceable(584) %0) #4 align 2 {
  %2 = alloca ptr, align 8
  %3 = alloca %"struct.facebook::yoga::FloatOptional", align 4
  store ptr %0, ptr %2, align 8, !tbaa !4
  %4 = load ptr, ptr %2, align 8
  %5 = load i8, ptr %4, align 8
  %6 = lshr i8 %5, 2
  %7 = and i8 %6, 1
  %8 = trunc i8 %7 to i1
  br i1 %8, label %19, label %9

9:                                                ; preds = %1
  call void @_ZN8facebook4yoga4Node8setDirtyEb(ptr noundef nonnull align 8 dereferenceable(584) %4, i1 noundef zeroext true)
  call void @llvm.memset.p0.i64(ptr align 4 %3, i8 0, i64 4, i1 false)
  call void @_ZN8facebook4yoga13FloatOptionalC2Ev(ptr noundef nonnull align 4 dereferenceable(4) %3) #3
  %10 = getelementptr inbounds nuw %"struct.facebook::yoga::FloatOptional", ptr %3, i32 0, i32 0
  %11 = load float, ptr %10, align 4
  call void @_ZN8facebook4yoga4Node26setLayoutComputedFlexBasisENS0_13FloatOptionalE(ptr noundef nonnull align 8 dereferenceable(584) %4, float %11)
  %12 = getelementptr inbounds nuw %"class.facebook::yoga::Node", ptr %4, i32 0, i32 9
  %13 = load ptr, ptr %12, align 8, !tbaa !64
  %14 = icmp ne ptr %13, null
  br i1 %14, label %15, label %18

15:                                               ; preds = %9
  %16 = getelementptr inbounds nuw %"class.facebook::yoga::Node", ptr %4, i32 0, i32 9
  %17 = load ptr, ptr %16, align 8, !tbaa !64
  call void @_ZN8facebook4yoga4Node21markDirtyAndPropagateEv(ptr noundef nonnull align 8 dereferenceable(584) %17)
  br label %18

18:                                               ; preds = %15, %9
  br label %19

19:                                               ; preds = %18, %1
  ret void
}