; Function Attrs: mustprogress uwtable
define void @_ZN8facebook4yoga4Node21markDirtyAndPropagateEv(ptr noundef nonnull align 8 dereferenceable(584) %0) local_unnamed_addr #3 align 2 {
  br label %tailrecurse

tailrecurse:                                      ; preds = %_ZN8facebook4yoga4Node8setDirtyEb.exit, %1
  %.tr = phi ptr [ %0, %1 ], [ %11, %_ZN8facebook4yoga4Node8setDirtyEb.exit ]
  %2 = load i8, ptr %.tr, align 8
  %3 = and i8 %2, 4
  %.not = icmp eq i8 %3, 0
  br i1 %.not, label %4, label %12

4:                                                ; preds = %tailrecurse
  %5 = or disjoint i8 %2, 4
  store i8 %5, ptr %.tr, align 8
  %6 = getelementptr inbounds nuw i8, ptr %.tr, i64 32
  %7 = load ptr, ptr %6, align 8, !tbaa !82
  %.not.i = icmp eq ptr %7, null
  br i1 %.not.i, label %_ZN8facebook4yoga4Node8setDirtyEb.exit, label %8

8:                                                ; preds = %4
  tail call void %7(ptr noundef nonnull align 8 dereferenceable(584) %.tr)
  br label %_ZN8facebook4yoga4Node8setDirtyEb.exit

_ZN8facebook4yoga4Node8setDirtyEb.exit:           ; preds = %4, %8
  %9 = getelementptr inbounds nuw i8, ptr %.tr, i64 188
  store float 0x7FF8000000000000, ptr %9, align 4, !tbaa !20
  %10 = getelementptr inbounds nuw i8, ptr %.tr, i64 528
  %11 = load ptr, ptr %10, align 8, !tbaa !90
  %.not1 = icmp eq ptr %11, null
  br i1 %.not1, label %12, label %tailrecurse

12:                                               ; preds = %_ZN8facebook4yoga4Node8setDirtyEb.exit, %tailrecurse
  ret void
}